target datalayout = "e-m:e-p270:32:32-p271:32:32-p272:64:64-i64:64-i128:128-f80:128-n8:16:32:64-S128"
target triple = "x86_64-pc-linux-gnu"

%struct.callback_ent = type { ptr, ptr, ptr, ptr, ptr }
%"class.icu_77::UnicodeString" = type { %"class.icu_77::Replaceable", %"union.icu_77::UnicodeString::StackBufferOrFields" }
%"class.icu_77::Replaceable" = type { %"class.icu_77::UObject" }
%"class.icu_77::UObject" = type { ptr }
%"union.icu_77::UnicodeString::StackBufferOrFields" = type { %struct.anon.0, [32 x i8] }
%struct.anon.0 = type { i16, i32, i32, ptr }
%struct.anon = type { i16, [27 x i16] }

@stderr = external global ptr, align 8
@stdout = external global ptr, align 8
@_ZL7gBundle = internal global ptr null, align 8
@.str.67 = private unnamed_addr constant [12 x i8] c"lcUsageWord\00", align 1
@.str.68 = private unnamed_addr constant [12 x i8] c"ucUsageWord\00", align 1
@.str.69 = private unnamed_addr constant [6 x i8] c"usage\00", align 1
@.str.70 = private unnamed_addr constant [5 x i8] c"help\00", align 1
@.str.71 = private unnamed_addr constant [4 x i8] c" %s\00", align 1

; Function Attrs: inlinehint mustprogress nounwind uwtable
define linkonce_odr dso_local noundef ptr @_ZNK6icu_7713UnicodeString9getBufferEv(ptr noundef nonnull align 8 dereferenceable(64) %0) #7 comdat align 2 {
  %2 = alloca ptr, align 8
  %3 = alloca ptr, align 8
  store ptr %0, ptr %3, align 8, !tbaa !51
  %4 = load ptr, ptr %3, align 8
  %5 = getelementptr inbounds nuw %"class.icu_77::UnicodeString", ptr %4, i32 0, i32 1
  %6 = getelementptr inbounds nuw %struct.anon.0, ptr %5, i32 0, i32 0
  %7 = load i16, ptr %6, align 8, !tbaa !12
  %8 = sext i16 %7 to i32
  %9 = and i32 %8, 17
  %10 = icmp ne i32 %9, 0
  br i1 %10, label %11, label %12

11:                                               ; preds = %1
  store ptr null, ptr %2, align 8
  br label %27

12:                                               ; preds = %1
  %13 = getelementptr inbounds nuw %"class.icu_77::UnicodeString", ptr %4, i32 0, i32 1
  %14 = getelementptr inbounds nuw %struct.anon.0, ptr %13, i32 0, i32 0
  %15 = load i16, ptr %14, align 8, !tbaa !12
  %16 = sext i16 %15 to i32
  %17 = and i32 %16, 2
  %18 = icmp ne i32 %17, 0
  br i1 %18, label %19, label %23

19:                                               ; preds = %12
  %20 = getelementptr inbounds nuw %"class.icu_77::UnicodeString", ptr %4, i32 0, i32 1
  %21 = getelementptr inbounds nuw %struct.anon, ptr %20, i32 0, i32 1
  %22 = getelementptr inbounds [27 x i16], ptr %21, i64 0, i64 0
  store ptr %22, ptr %2, align 8
  br label %27

23:                                               ; preds = %12
  %24 = getelementptr inbounds nuw %"class.icu_77::UnicodeString", ptr %4, i32 0, i32 1
  %25 = getelementptr inbounds nuw %struct.anon.0, ptr %24, i32 0, i32 3
  %26 = load ptr, ptr %25, align 8, !tbaa !12
  store ptr %26, ptr %2, align 8
  br label %27

27:                                               ; preds = %23, %19, %11
  %28 = load ptr, ptr %2, align 8
  ret ptr %28
}

; Function Attrs: mustprogress uwtable
define internal void @_ZL5usagePKci(ptr noundef %0, i32 noundef %1) #0 personality ptr @__gxx_personality_v0 {
  %3 = alloca ptr, align 8
  %4 = alloca i32, align 4
  %5 = alloca ptr, align 8
  %6 = alloca i32, align 4
  %7 = alloca i32, align 4
  %8 = alloca ptr, align 8
  %9 = alloca i32, align 4
  %10 = alloca %"class.icu_77::UnicodeString", align 8
  %11 = alloca %"class.icu_77::UnicodeString", align 8
  %12 = alloca ptr, align 8
  %13 = alloca i32, align 4
  %14 = alloca i32, align 4
  %15 = alloca i32, align 4
  store ptr %0, ptr %3, align 8, !tbaa !9
  store i32 %1, ptr %4, align 4, !tbaa !15
  call void @llvm.lifetime.start.p0(i64 8, ptr %5) #17
  call void @llvm.lifetime.start.p0(i64 4, ptr %6) #17
  call void @llvm.lifetime.start.p0(i64 4, ptr %7) #17
  store i32 0, ptr %7, align 4, !tbaa !19
  call void @llvm.lifetime.start.p0(i64 8, ptr %8) #17
  %16 = load i32, ptr %4, align 4, !tbaa !15
  %17 = icmp ne i32 %16, 0
  br i1 %17, label %18, label %20

18:                                               ; preds = %2
  %19 = load ptr, ptr @stderr, align 8, !tbaa !13
  br label %22

20:                                               ; preds = %2
  %21 = load ptr, ptr @stdout, align 8, !tbaa !13
  br label %22

22:                                               ; preds = %20, %18
  %23 = phi ptr [ %19, %18 ], [ %21, %20 ]
  store ptr %23, ptr %8, align 8, !tbaa !13
  call void @llvm.lifetime.start.p0(i64 4, ptr %9) #17
  %24 = load ptr, ptr %3, align 8, !tbaa !9
  call void @_ZL7initMsgPKc(ptr noundef %24)
  %25 = load ptr, ptr @_ZL7gBundle, align 8, !tbaa !53
  %26 = load i32, ptr %4, align 4, !tbaa !15
  %27 = icmp ne i32 %26, 0
  br i1 %27, label %28, label %29

28:                                               ; preds = %22
  br label %30

29:                                               ; preds = %22
  br label %30

30:                                               ; preds = %29, %28
  %31 = phi ptr [ @.str.67, %28 ], [ @.str.68, %29 ]
  %32 = getelementptr inbounds [12 x i8], ptr %31, i64 0, i64 0
  %33 = call ptr @ures_getStringByKey_77(ptr noundef %25, ptr noundef %32, ptr noundef %6, ptr noundef %7)
  store ptr %33, ptr %5, align 8, !tbaa !35
  call void @llvm.lifetime.start.p0(i64 64, ptr %10) #17
  %34 = load ptr, ptr %3, align 8, !tbaa !9
  %35 = load ptr, ptr %3, align 8, !tbaa !9
  %36 = call i64 @strlen(ptr noundef %35) #18
  %37 = add i64 %36, 1
  %38 = trunc i64 %37 to i32
  call void @_ZN6icu_7713UnicodeStringC1EPKci(ptr noundef nonnull align 8 dereferenceable(64) %10, ptr noundef %34, i32 noundef %38)
  call void @llvm.lifetime.start.p0(i64 64, ptr %11) #17
  %39 = load ptr, ptr %5, align 8, !tbaa !35
  %40 = load i32, ptr %6, align 4, !tbaa !15
  %41 = add nsw i32 %40, 1
  invoke void @_ZN6icu_7713UnicodeStringC1EPKDsi(ptr noundef nonnull align 8 dereferenceable(64) %11, ptr noundef %39, i32 noundef %41)
          to label %42 unwind label %57

42:                                               ; preds = %30
  %43 = load ptr, ptr %8, align 8, !tbaa !13
  %44 = call noundef ptr @_ZNK6icu_7713UnicodeString9getBufferEv(ptr noundef nonnull align 8 dereferenceable(64) %11)
  %45 = call noundef ptr @_ZNK6icu_7713UnicodeString9getBufferEv(ptr noundef nonnull align 8 dereferenceable(64) %10)
  %46 = invoke i32 (ptr, ptr, ...) @u_wmsg(ptr noundef %43, ptr noundef @.str.69, ptr noundef %44, ptr noundef %45)
          to label %47 unwind label %61

47:                                               ; preds = %42
  store i32 %46, ptr %9, align 4, !tbaa !15
  %48 = load i32, ptr %4, align 4, !tbaa !15
  %49 = icmp ne i32 %48, 0
  br i1 %49, label %95, label %50

50:                                               ; preds = %47
  %51 = load i32, ptr %9, align 4, !tbaa !15
  %52 = icmp ne i32 %51, 0
  br i1 %52, label %65, label %53

53:                                               ; preds = %50
  %54 = load ptr, ptr %8, align 8, !tbaa !13
  %55 = invoke i32 @fputc(i32 noundef 10, ptr noundef %54)
          to label %56 unwind label %61

56:                                               ; preds = %53
  br label %65

57:                                               ; preds = %30
  %58 = landingpad { ptr, i32 }
          cleanup
  %59 = extractvalue { ptr, i32 } %58, 0
  store ptr %59, ptr %12, align 8
  %60 = extractvalue { ptr, i32 } %58, 1
  store i32 %60, ptr %13, align 4
  br label %98

61:                                               ; preds = %65, %53, %42
  %62 = landingpad { ptr, i32 }
          cleanup
  %63 = extractvalue { ptr, i32 } %62, 0
  store ptr %63, ptr %12, align 8
  %64 = extractvalue { ptr, i32 } %62, 1
  store i32 %64, ptr %13, align 4
  br label %97

65:                                               ; preds = %56, %50
  %66 = load ptr, ptr %8, align 8, !tbaa !13
  %67 = invoke i32 (ptr, ptr, ...) @u_wmsg(ptr noundef %66, ptr noundef @.str.70)
          to label %68 unwind label %61

68:                                               ; preds = %65
  %69 = icmp ne i32 %67, 0
  br i1 %69, label %94, label %70

70:                                               ; preds = %68
  call void @llvm.lifetime.start.p0(i64 4, ptr %14) #17
  call void @llvm.lifetime.start.p0(i64 4, ptr %15) #17
  store i32 11, ptr %15, align 4, !tbaa !15
  store i32 0, ptr %14, align 4, !tbaa !15
  br label %71

71:                                               ; preds = %83, %70
  %72 = load i32, ptr %14, align 4, !tbaa !15
  %73 = load i32, ptr %15, align 4, !tbaa !15
  %74 = icmp slt i32 %72, %73
  br i1 %74, label %75, label %86

75:                                               ; preds = %71
  %76 = load ptr, ptr %8, align 8, !tbaa !13
  %77 = load i32, ptr %14, align 4, !tbaa !15
  %78 = sext i32 %77 to i64
  %79 = getelementptr inbounds [11 x %struct.callback_ent], ptr @_ZL19transcode_callbacks, i64 0, i64 %78
  %80 = getelementptr inbounds nuw %struct.callback_ent, ptr %79, i32 0, i32 0
  %81 = load ptr, ptr %80, align 8, !tbaa !75
  %82 = call i32 (ptr, ptr, ...) @fprintf(ptr noundef %76, ptr noundef @.str.71, ptr noundef %81) #17
  br label %83

83:                                               ; preds = %75
  %84 = load i32, ptr %14, align 4, !tbaa !15
  %85 = add nsw i32 %84, 1
  store i32 %85, ptr %14, align 4, !tbaa !15
  br label %71, !llvm.loop !76

86:                                               ; preds = %71
  %87 = load ptr, ptr %8, align 8, !tbaa !13
  %88 = invoke i32 @fputc(i32 noundef 10, ptr noundef %87)
          to label %89 unwind label %90

89:                                               ; preds = %86
  call void @llvm.lifetime.end.p0(i64 4, ptr %15) #17
  call void @llvm.lifetime.end.p0(i64 4, ptr %14) #17
  br label %94

90:                                               ; preds = %86
  %91 = landingpad { ptr, i32 }
          cleanup
  %92 = extractvalue { ptr, i32 } %91, 0
  store ptr %92, ptr %12, align 8
  %93 = extractvalue { ptr, i32 } %91, 1
  store i32 %93, ptr %13, align 4
  call void @llvm.lifetime.end.p0(i64 4, ptr %15) #17
  call void @llvm.lifetime.end.p0(i64 4, ptr %14) #17
  br label %97

94:                                               ; preds = %89, %68
  br label %95

95:                                               ; preds = %94, %47
  %96 = load i32, ptr %4, align 4, !tbaa !15
  call void @exit(i32 noundef %96) #20
  unreachable

97:                                               ; preds = %90, %61
  call void @_ZN6icu_7713UnicodeStringD1Ev(ptr noundef nonnull align 8 dereferenceable(64) %11) #17
  br label %98

98:                                               ; preds = %97, %57
  call void @llvm.lifetime.end.p0(i64 64, ptr %11) #17
  call void @_ZN6icu_7713UnicodeStringD1Ev(ptr noundef nonnull align 8 dereferenceable(64) %10) #17
  call void @llvm.lifetime.end.p0(i64 64, ptr %10) #17
  call void @llvm.lifetime.end.p0(i64 4, ptr %9) #17
  call void @llvm.lifetime.end.p0(i64 8, ptr %8) #17
  call void @llvm.lifetime.end.p0(i64 4, ptr %7) #17
  call void @llvm.lifetime.end.p0(i64 4, ptr %6) #17
  call void @llvm.lifetime.end.p0(i64 8, ptr %5) #17
  br label %99

99:                                               ; preds = %98
  %100 = load ptr, ptr %12, align 8
  %101 = load i32, ptr %13, align 4
  %102 = insertvalue { ptr, i32 } poison, ptr %100, 0
  %103 = insertvalue { ptr, i32 } %102, i32 %101, 1
  resume { ptr, i32 } %103
}