; Function Attrs: mustprogress norecurse noreturn uwtable
define internal fastcc void @_ZL5usagePKci(ptr noundef %0, i32 noundef range(i32 0, 2) %1) unnamed_addr #11 personality ptr @__gxx_personality_v0 {
  %3 = alloca i32, align 4
  %4 = alloca i32, align 4
  %5 = alloca %"class.icu_77::UnicodeString", align 8
  %6 = alloca %"class.icu_77::UnicodeString", align 8
  call void @llvm.lifetime.start.p0(i64 4, ptr nonnull %3) #20
  call void @llvm.lifetime.start.p0(i64 4, ptr nonnull %4) #20
  store i32 0, ptr %4, align 4, !tbaa !4
  %.not = icmp eq i32 %1, 0
  %7 = load ptr, ptr @stderr, align 8
  %8 = load ptr, ptr @stdout, align 8
  %9 = select i1 %.not, ptr %8, ptr %7
  tail call fastcc void @_ZL7initMsgPKc(ptr noundef %0)
  %10 = load ptr, ptr @_ZL7gBundle, align 8, !tbaa !44
  %11 = select i1 %.not, ptr @.str.68, ptr @.str.67
  %12 = call ptr @ures_getStringByKey_77(ptr noundef %10, ptr noundef nonnull %11, ptr noundef nonnull %3, ptr noundef nonnull %4)
  call void @llvm.lifetime.start.p0(i64 64, ptr nonnull %5) #20
  %13 = call i64 @strlen(ptr noundef nonnull dereferenceable(1) %0) #23
  %14 = trunc i64 %13 to i32
  %15 = add i32 %14, 1
  call void @_ZN6icu_7713UnicodeStringC1EPKci(ptr noundef nonnull align 8 dereferenceable(64) %5, ptr noundef nonnull %0, i32 noundef %15)
  call void @llvm.lifetime.start.p0(i64 64, ptr nonnull %6) #20
  %16 = load i32, ptr %3, align 4, !tbaa !11
  %17 = add nsw i32 %16, 1
  invoke void @_ZN6icu_7713UnicodeStringC1EPKDsi(ptr noundef nonnull align 8 dereferenceable(64) %6, ptr noundef %12, i32 noundef %17)
          to label %18 unwind label %44

18:                                               ; preds = %2
  %19 = getelementptr inbounds nuw i8, ptr %6, i64 8
  %20 = load i16, ptr %19, align 8, !tbaa !10
  %21 = and i16 %20, 17
  %.not.i = icmp eq i16 %21, 0
  br i1 %.not.i, label %22, label %_ZNK6icu_7713UnicodeString9getBufferEv.exit

22:                                               ; preds = %18
  %23 = and i16 %20, 2
  %.not2.i = icmp eq i16 %23, 0
  br i1 %.not2.i, label %26, label %24

24:                                               ; preds = %22
  %25 = getelementptr inbounds nuw i8, ptr %6, i64 10
  br label %_ZNK6icu_7713UnicodeString9getBufferEv.exit

26:                                               ; preds = %22
  %27 = getelementptr inbounds nuw i8, ptr %6, i64 24
  %28 = load ptr, ptr %27, align 8, !tbaa !10
  br label %_ZNK6icu_7713UnicodeString9getBufferEv.exit

_ZNK6icu_7713UnicodeString9getBufferEv.exit:      ; preds = %18, %24, %26
  %.0.i = phi ptr [ %25, %24 ], [ %28, %26 ], [ null, %18 ]
  %29 = getelementptr inbounds nuw i8, ptr %5, i64 8
  %30 = load i16, ptr %29, align 8, !tbaa !10
  %31 = and i16 %30, 17
  %.not.i24 = icmp eq i16 %31, 0
  br i1 %.not.i24, label %32, label %_ZNK6icu_7713UnicodeString9getBufferEv.exit27

32:                                               ; preds = %_ZNK6icu_7713UnicodeString9getBufferEv.exit
  %33 = and i16 %30, 2
  %.not2.i26 = icmp eq i16 %33, 0
  br i1 %.not2.i26, label %36, label %34

34:                                               ; preds = %32
  %35 = getelementptr inbounds nuw i8, ptr %5, i64 10
  br label %_ZNK6icu_7713UnicodeString9getBufferEv.exit27

36:                                               ; preds = %32
  %37 = getelementptr inbounds nuw i8, ptr %5, i64 24
  %38 = load ptr, ptr %37, align 8, !tbaa !10
  br label %_ZNK6icu_7713UnicodeString9getBufferEv.exit27

_ZNK6icu_7713UnicodeString9getBufferEv.exit27:    ; preds = %_ZNK6icu_7713UnicodeString9getBufferEv.exit, %34, %36
  %.0.i25 = phi ptr [ %35, %34 ], [ %38, %36 ], [ null, %_ZNK6icu_7713UnicodeString9getBufferEv.exit ]
  %39 = invoke i32 (ptr, ptr, ...) @u_wmsg(ptr noundef %9, ptr noundef nonnull @.str.69, ptr noundef %.0.i, ptr noundef %.0.i25)
          to label %40 unwind label %46

40:                                               ; preds = %_ZNK6icu_7713UnicodeString9getBufferEv.exit27
  br i1 %.not, label %41, label %56

41:                                               ; preds = %40
  %.not21 = icmp eq i32 %39, 0
  br i1 %.not21, label %42, label %48

42:                                               ; preds = %41
  %43 = call i32 @fputc(i32 noundef 10, ptr noundef %8)
  br label %48

44:                                               ; preds = %2
  %45 = landingpad { ptr, i32 }
          cleanup
  br label %57

46:                                               ; preds = %48, %_ZNK6icu_7713UnicodeString9getBufferEv.exit27
  %47 = landingpad { ptr, i32 }
          cleanup
  call void @_ZN6icu_7713UnicodeStringD1Ev(ptr noundef nonnull align 8 dereferenceable(64) %6) #20
  br label %57

48:                                               ; preds = %42, %41
  %49 = invoke i32 (ptr, ptr, ...) @u_wmsg(ptr noundef %8, ptr noundef nonnull @.str.70)
          to label %50 unwind label %46

50:                                               ; preds = %48
  %.not23 = icmp eq i32 %49, 0
  br i1 %.not23, label %.preheader, label %56

.preheader:                                       ; preds = %50, %.preheader
  %indvars.iv = phi i64 [ %indvars.iv.next, %.preheader ], [ 0, %50 ]
  %51 = getelementptr inbounds nuw [11 x %struct.callback_ent], ptr @_ZL19transcode_callbacks, i64 0, i64 %indvars.iv
  %52 = load ptr, ptr %51, align 8, !tbaa !47
  %53 = call i32 (ptr, ptr, ...) @fprintf(ptr noundef %8, ptr noundef nonnull @.str.71, ptr noundef %52) #20
  %indvars.iv.next = add nuw nsw i64 %indvars.iv, 1
  %exitcond.not = icmp eq i64 %indvars.iv.next, 11
  br i1 %exitcond.not, label %54, label %.preheader, !llvm.loop !61

54:                                               ; preds = %.preheader
  %55 = call i32 @fputc(i32 noundef 10, ptr noundef %8)
  br label %56

56:                                               ; preds = %50, %54, %40
  call void @exit(i32 noundef %1) #28
  unreachable

57:                                               ; preds = %46, %44
  %.pn = phi { ptr, i32 } [ %47, %46 ], [ %45, %44 ]
  call void @llvm.lifetime.end.p0(i64 64, ptr nonnull %6) #20
  call void @_ZN6icu_7713UnicodeStringD1Ev(ptr noundef nonnull align 8 dereferenceable(64) %5) #20
  call void @llvm.lifetime.end.p0(i64 64, ptr nonnull %5) #20
  call void @llvm.lifetime.end.p0(i64 4, ptr nonnull %4) #20
  call void @llvm.lifetime.end.p0(i64 4, ptr nonnull %3) #20
  resume { ptr, i32 } %.pn
}